target datalayout = "e-m:e-p270:32:32-p271:32:32-p272:64:64-i64:64-i128:128-f80:128-n8:16:32:64-S128"
target triple = "x86_64-pc-linux-gnu"

%struct.expert_field = type { i32, i32 }
%struct.MessageHeader = type { [4 x i8], %struct.Version, i8, i8, i32, i32, i32, ptr }
%struct.Version = type { i8, i8 }

@hf_GIAS_OrderRequest_complete_return = internal global i32 0, align 4
@ei_gias_unknown_giop_msg = internal global %struct.expert_field zeroinitializer, align 4
@ei_gias_unknown_exception = internal global %struct.expert_field zeroinitializer, align 4
@ett_giop_struct = internal global i32 0, align 4
@boundary = internal global i32 12, align 4
@.str.826 = private unnamed_addr constant [21 x i8] c"Unknown exception %d\00", align 1
@.str.827 = private unnamed_addr constant [24 x i8] c"Unknown GIOP message %d\00", align 1
@.str.846 = private unnamed_addr constant [29 x i8] c"struct GIAS_DeliveryManifest\00", align 1

; Function Attrs: null_pointer_is_valid sspstrong uwtable
define internal void @decode_GIAS_OrderRequest_complete(ptr noundef %0, ptr noundef %1, ptr noundef %2, ptr noundef %3, ptr noundef %4, ptr noundef %5, ptr noundef %6, i1 noundef zeroext %7) #0 {
  %9 = alloca ptr, align 8
  %10 = alloca ptr, align 8
  %11 = alloca ptr, align 8
  %12 = alloca ptr, align 8
  %13 = alloca ptr, align 8
  %14 = alloca ptr, align 8
  %15 = alloca ptr, align 8
  %16 = alloca i8, align 1
  %17 = alloca i32, align 4
  %18 = alloca ptr, align 8
  store ptr %0, ptr %9, align 8
  store ptr %1, ptr %10, align 8
  store ptr %2, ptr %11, align 8
  store ptr %3, ptr %12, align 8
  store ptr %4, ptr %13, align 8
  store ptr %5, ptr %14, align 8
  store ptr %6, ptr %15, align 8
  %19 = zext i1 %7 to i8
  store i8 %19, ptr %16, align 1
  call void @llvm.lifetime.start.p0(i64 4, ptr %17) #6
  %20 = load ptr, ptr %14, align 8
  %21 = getelementptr inbounds nuw %struct.MessageHeader, ptr %20, i32 0, i32 3
  %22 = load i8, ptr %21, align 1
  %23 = zext i8 %22 to i32
  switch i32 %23, label %66 [
    i32 0, label %74
    i32 1, label %24
  ]

24:                                               ; preds = %8
  %25 = load ptr, ptr %14, align 8
  %26 = getelementptr inbounds nuw %struct.MessageHeader, ptr %25, i32 0, i32 6
  %27 = load i32, ptr %26, align 8
  switch i32 %27, label %58 [
    i32 0, label %28
    i32 1, label %65
  ]

28:                                               ; preds = %24
  %29 = load ptr, ptr %9, align 8
  %30 = load ptr, ptr %13, align 8
  %31 = load i8, ptr %16, align 1, !range !6, !noundef !7
  %32 = trunc i8 %31 to i1
  %33 = load i32, ptr @boundary, align 4
  %34 = call i32 @get_CDR_enum(ptr noundef %29, ptr noundef %30, i1 noundef zeroext %32, i32 noundef %33)
  store i32 %34, ptr %17, align 4
  %35 = load ptr, ptr %11, align 8
  %36 = load i32, ptr @hf_GIAS_OrderRequest_complete_return, align 4
  %37 = load ptr, ptr %9, align 8
  %38 = load ptr, ptr %13, align 8
  %39 = load i32, ptr %38, align 4
  %40 = sub i32 %39, 4
  %41 = load i32, ptr %17, align 4
  %42 = call ptr @proto_tree_add_uint(ptr noundef %35, i32 noundef %36, ptr noundef %37, i32 noundef %40, i32 noundef 4, i32 noundef %41)
  call void @llvm.lifetime.start.p0(i64 8, ptr %18) #6
  %43 = load ptr, ptr %11, align 8
  %44 = load ptr, ptr %9, align 8
  %45 = load ptr, ptr %13, align 8
  %46 = load i32, ptr %45, align 4
  %47 = load i32, ptr @ett_giop_struct, align 4
  %48 = call ptr @proto_tree_add_subtree(ptr noundef %43, ptr noundef %44, i32 noundef %46, i32 noundef -1, i32 noundef %47, ptr noundef null, ptr noundef @.str.846)
  store ptr %48, ptr %18, align 8
  %49 = load ptr, ptr %9, align 8
  %50 = load ptr, ptr %10, align 8
  %51 = load ptr, ptr %18, align 8
  %52 = load ptr, ptr %12, align 8
  %53 = load ptr, ptr %13, align 8
  %54 = load ptr, ptr %14, align 8
  %55 = load ptr, ptr %15, align 8
  %56 = load i8, ptr %16, align 1, !range !6, !noundef !7
  %57 = trunc i8 %56 to i1
  call void @decode_GIAS_DeliveryManifest_st(ptr noundef %49, ptr noundef %50, ptr noundef %51, ptr noundef %52, ptr noundef %53, ptr noundef %54, ptr noundef %55, i1 noundef zeroext %57)
  call void @llvm.lifetime.end.p0(i64 8, ptr %18) #6
  br label %65

58:                                               ; preds = %24
  %59 = load ptr, ptr %10, align 8
  %60 = load ptr, ptr %12, align 8
  %61 = load ptr, ptr %14, align 8
  %62 = getelementptr inbounds nuw %struct.MessageHeader, ptr %61, i32 0, i32 6
  %63 = load i32, ptr %62, align 8
  %64 = call ptr (ptr, ptr, ptr, ptr, ...) @expert_add_info_format(ptr noundef %59, ptr noundef %60, ptr noundef @ei_gias_unknown_exception, ptr noundef @.str.826, i32 noundef %63)
  br label %65

65:                                               ; preds = %58, %24, %28
  br label %74

66:                                               ; preds = %8
  %67 = load ptr, ptr %10, align 8
  %68 = load ptr, ptr %12, align 8
  %69 = load ptr, ptr %14, align 8
  %70 = getelementptr inbounds nuw %struct.MessageHeader, ptr %69, i32 0, i32 3
  %71 = load i8, ptr %70, align 1
  %72 = zext i8 %71 to i32
  %73 = call ptr (ptr, ptr, ptr, ptr, ...) @expert_add_info_format(ptr noundef %67, ptr noundef %68, ptr noundef @ei_gias_unknown_giop_msg, ptr noundef @.str.827, i32 noundef %72)
  br label %74

74:                                               ; preds = %66, %65, %8
  call void @llvm.lifetime.end.p0(i64 4, ptr %17) #6
  ret void
}